target datalayout = "e-m:e-p270:32:32-p271:32:32-p272:64:64-i64:64-i128:128-f80:128-n8:16:32:64-S128"
target triple = "x86_64-pc-linux-gnu"

%struct.VuDev = type { i32, i32, ptr, ptr, %struct.VuDevInflightInfo, i32, %union.pthread_mutex_t, i32, i64, ptr, i64, i64, i8, i16, ptr, ptr, ptr, ptr, ptr, i32, i8 }
%struct.VuDevInflightInfo = type { i32, ptr, i64 }
%union.pthread_mutex_t = type { %struct.__pthread_mutex_s }
%struct.__pthread_mutex_s = type { i32, i32, i32, i32, i32, i16, i16, %struct.__pthread_internal_list }
%struct.__pthread_internal_list = type { ptr, ptr }
%struct.VhostUserMsg = type <{ i32, i32, i32, %union.anon, [8 x i32], i32, ptr }>
%union.anon = type { %struct.VhostUserMemory, [8 x i8] }
%struct.VhostUserMemory = type { i32, i32, [8 x %struct.VhostUserMemoryRegion] }
%struct.VhostUserMemoryRegion = type { i64, i64, i64, i64 }
%struct.VhostUserInflight = type { i64, i64, i16, i16 }

@.str.85 = private unnamed_addr constant [35 x i8] c"Invalid get_inflight_fd message:%d\00", align 1
@.str.86 = private unnamed_addr constant [15 x i8] c"vhost-inflight\00", align 1
@.str.87 = private unnamed_addr constant [36 x i8] c"Failed to alloc vhost inflight area\00", align 1

; Function Attrs: nounwind uwtable
define internal ptr @memfd_alloc(ptr noundef %0, i64 noundef %1, i32 noundef %2, ptr noundef %3) #0 {
  %5 = alloca ptr, align 8
  %6 = alloca ptr, align 8
  %7 = alloca i64, align 8
  %8 = alloca i32, align 4
  %9 = alloca ptr, align 8
  %10 = alloca ptr, align 8
  %11 = alloca i32, align 4
  %12 = alloca i32, align 4
  store ptr %0, ptr %6, align 8
  store i64 %1, ptr %7, align 8
  store i32 %2, ptr %8, align 4
  store ptr %3, ptr %9, align 8
  call void @llvm.lifetime.start.p0(i64 8, ptr %10) #13
  store ptr null, ptr %10, align 8, !annotation !4
  call void @llvm.lifetime.start.p0(i64 4, ptr %11) #13
  store i32 0, ptr %11, align 4, !annotation !4
  %13 = load ptr, ptr %6, align 8
  %14 = call i32 @memfd_create(ptr noundef %13, i32 noundef 2) #13
  %15 = load ptr, ptr %9, align 8
  store i32 %14, ptr %15, align 4
  %16 = load ptr, ptr %9, align 8
  %17 = load i32, ptr %16, align 4
  %18 = icmp slt i32 %17, 0
  br i1 %18, label %19, label %20

19:                                               ; preds = %4
  store ptr null, ptr %5, align 8
  store i32 1, ptr %12, align 4
  br label %55

20:                                               ; preds = %4
  %21 = load ptr, ptr %9, align 8
  %22 = load i32, ptr %21, align 4
  %23 = load i64, ptr %7, align 8
  %24 = call i32 @ftruncate64(i32 noundef %22, i64 noundef %23) #13
  store i32 %24, ptr %11, align 4
  %25 = load i32, ptr %11, align 4
  %26 = icmp slt i32 %25, 0
  br i1 %26, label %27, label %31

27:                                               ; preds = %20
  %28 = load ptr, ptr %9, align 8
  %29 = load i32, ptr %28, align 4
  %30 = call i32 @close(i32 noundef %29)
  store ptr null, ptr %5, align 8
  store i32 1, ptr %12, align 4
  br label %55

31:                                               ; preds = %20
  %32 = load ptr, ptr %9, align 8
  %33 = load i32, ptr %32, align 4
  %34 = load i32, ptr %8, align 4
  %35 = call i32 (i32, i32, ...) @fcntl64(i32 noundef %33, i32 noundef 1033, i32 noundef %34)
  store i32 %35, ptr %11, align 4
  %36 = load i32, ptr %11, align 4
  %37 = icmp slt i32 %36, 0
  br i1 %37, label %38, label %42

38:                                               ; preds = %31
  %39 = load ptr, ptr %9, align 8
  %40 = load i32, ptr %39, align 4
  %41 = call i32 @close(i32 noundef %40)
  store ptr null, ptr %5, align 8
  store i32 1, ptr %12, align 4
  br label %55

42:                                               ; preds = %31
  %43 = load i64, ptr %7, align 8
  %44 = load ptr, ptr %9, align 8
  %45 = load i32, ptr %44, align 4
  %46 = call ptr @mmap64(ptr noundef null, i64 noundef %43, i32 noundef 3, i32 noundef 1, i32 noundef %45, i64 noundef 0) #13
  store ptr %46, ptr %10, align 8
  %47 = load ptr, ptr %10, align 8
  %48 = icmp eq ptr %47, inttoptr (i64 -1 to ptr)
  br i1 %48, label %49, label %53

49:                                               ; preds = %42
  %50 = load ptr, ptr %9, align 8
  %51 = load i32, ptr %50, align 4
  %52 = call i32 @close(i32 noundef %51)
  store ptr null, ptr %5, align 8
  store i32 1, ptr %12, align 4
  br label %55

53:                                               ; preds = %42
  %54 = load ptr, ptr %10, align 8
  store ptr %54, ptr %5, align 8
  store i32 1, ptr %12, align 4
  br label %55

55:                                               ; preds = %53, %49, %38, %27, %19
  call void @llvm.lifetime.end.p0(i64 4, ptr %11) #13
  call void @llvm.lifetime.end.p0(i64 8, ptr %10) #13
  %56 = load ptr, ptr %5, align 8
  ret ptr %56
}

; Function Attrs: inlinehint nounwind uwtable
define internal i64 @vu_inflight_queue_size(i16 noundef zeroext %0) #3 {
  %2 = alloca i16, align 2
  store i16 %0, ptr %2, align 2
  %3 = load i16, ptr %2, align 2
  %4 = zext i16 %3 to i64
  %5 = mul i64 16, %4
  %6 = add i64 %5, 2
  %7 = add i64 %6, 64
  %8 = sub i64 %7, 1
  %9 = udiv i64 %8, 64
  %10 = mul i64 %9, 64
  ret i64 %10
}

; Function Attrs: nounwind uwtable
define internal zeroext i1 @vu_get_inflight_fd(ptr noundef %0, ptr noundef %1) #0 {
  %3 = alloca i1, align 1
  %4 = alloca ptr, align 8
  %5 = alloca ptr, align 8
  %6 = alloca i32, align 4
  %7 = alloca ptr, align 8
  %8 = alloca i64, align 8
  %9 = alloca i16, align 2
  %10 = alloca i16, align 2
  %11 = alloca i32, align 4
  store ptr %0, ptr %4, align 8
  store ptr %1, ptr %5, align 8
  call void @llvm.lifetime.start.p0(i64 4, ptr %6) #13
  store i32 -1, ptr %6, align 4
  call void @llvm.lifetime.start.p0(i64 8, ptr %7) #13
  store ptr null, ptr %7, align 8
  call void @llvm.lifetime.start.p0(i64 8, ptr %8) #13
  store i64 0, ptr %8, align 8, !annotation !4
  call void @llvm.lifetime.start.p0(i64 2, ptr %9) #13
  store i16 0, ptr %9, align 2, !annotation !4
  call void @llvm.lifetime.start.p0(i64 2, ptr %10) #13
  store i16 0, ptr %10, align 2, !annotation !4
  %12 = load ptr, ptr %5, align 8
  %13 = getelementptr inbounds nuw %struct.VhostUserMsg, ptr %12, i32 0, i32 2
  %14 = load i32, ptr %13, align 1
  %15 = zext i32 %14 to i64
  %16 = icmp ne i64 %15, 24
  br i1 %16, label %17, label %25

17:                                               ; preds = %2
  %18 = load ptr, ptr %4, align 8
  %19 = load ptr, ptr %5, align 8
  %20 = getelementptr inbounds nuw %struct.VhostUserMsg, ptr %19, i32 0, i32 2
  %21 = load i32, ptr %20, align 1
  call void (ptr, ptr, ...) @vu_panic(ptr noundef %18, ptr noundef @.str.85, i32 noundef %21)
  %22 = load ptr, ptr %5, align 8
  %23 = getelementptr inbounds nuw %struct.VhostUserMsg, ptr %22, i32 0, i32 3
  %24 = getelementptr inbounds nuw %struct.VhostUserInflight, ptr %23, i32 0, i32 0
  store i64 0, ptr %24, align 1
  store i1 true, ptr %3, align 1
  store i32 1, ptr %11, align 4
  br label %86

25:                                               ; preds = %2
  %26 = load ptr, ptr %5, align 8
  %27 = getelementptr inbounds nuw %struct.VhostUserMsg, ptr %26, i32 0, i32 3
  %28 = getelementptr inbounds nuw %struct.VhostUserInflight, ptr %27, i32 0, i32 2
  %29 = load i16, ptr %28, align 1
  store i16 %29, ptr %9, align 2
  %30 = load ptr, ptr %5, align 8
  %31 = getelementptr inbounds nuw %struct.VhostUserMsg, ptr %30, i32 0, i32 3
  %32 = getelementptr inbounds nuw %struct.VhostUserInflight, ptr %31, i32 0, i32 3
  %33 = load i16, ptr %32, align 1
  store i16 %33, ptr %10, align 2
  br label %34

34:                                               ; preds = %25
  br label %35

35:                                               ; preds = %34
  br label %36

36:                                               ; preds = %35
  br label %37

37:                                               ; preds = %36
  br label %38

38:                                               ; preds = %37
  br label %39

39:                                               ; preds = %38
  %40 = load i16, ptr %10, align 2
  %41 = call i64 @vu_inflight_queue_size(i16 noundef zeroext %40)
  %42 = load i16, ptr %9, align 2
  %43 = zext i16 %42 to i64
  %44 = mul i64 %41, %43
  store i64 %44, ptr %8, align 8
  %45 = load i64, ptr %8, align 8
  %46 = call ptr @memfd_alloc(ptr noundef @.str.86, i64 noundef %45, i32 noundef 7, ptr noundef %6)
  store ptr %46, ptr %7, align 8
  %47 = load ptr, ptr %7, align 8
  %48 = icmp ne ptr %47, null
  br i1 %48, label %54, label %49

49:                                               ; preds = %39
  %50 = load ptr, ptr %4, align 8
  call void (ptr, ptr, ...) @vu_panic(ptr noundef %50, ptr noundef @.str.87)
  %51 = load ptr, ptr %5, align 8
  %52 = getelementptr inbounds nuw %struct.VhostUserMsg, ptr %51, i32 0, i32 3
  %53 = getelementptr inbounds nuw %struct.VhostUserInflight, ptr %52, i32 0, i32 0
  store i64 0, ptr %53, align 1
  store i1 true, ptr %3, align 1
  store i32 1, ptr %11, align 4
  br label %86

54:                                               ; preds = %39
  %55 = load ptr, ptr %7, align 8
  %56 = load i64, ptr %8, align 8
  call void @llvm.memset.p0.i64(ptr align 1 %55, i8 0, i64 %56, i1 false)
  %57 = load ptr, ptr %7, align 8
  %58 = load ptr, ptr %4, align 8
  %59 = getelementptr inbounds nuw %struct.VuDev, ptr %58, i32 0, i32 4
  %60 = getelementptr inbounds nuw %struct.VuDevInflightInfo, ptr %59, i32 0, i32 1
  store ptr %57, ptr %60, align 8
  %61 = load i64, ptr %8, align 8
  %62 = load ptr, ptr %5, align 8
  %63 = getelementptr inbounds nuw %struct.VhostUserMsg, ptr %62, i32 0, i32 3
  %64 = getelementptr inbounds nuw %struct.VhostUserInflight, ptr %63, i32 0, i32 0
  store i64 %61, ptr %64, align 1
  %65 = load ptr, ptr %4, align 8
  %66 = getelementptr inbounds nuw %struct.VuDev, ptr %65, i32 0, i32 4
  %67 = getelementptr inbounds nuw %struct.VuDevInflightInfo, ptr %66, i32 0, i32 2
  store i64 %61, ptr %67, align 8
  %68 = load i32, ptr %6, align 4
  %69 = load ptr, ptr %5, align 8
  %70 = getelementptr inbounds nuw %struct.VhostUserMsg, ptr %69, i32 0, i32 4
  %71 = getelementptr inbounds [8 x i32], ptr %70, i64 0, i64 0
  store i32 %68, ptr %71, align 1
  %72 = load ptr, ptr %4, align 8
  %73 = getelementptr inbounds nuw %struct.VuDev, ptr %72, i32 0, i32 4
  %74 = getelementptr inbounds nuw %struct.VuDevInflightInfo, ptr %73, i32 0, i32 0
  store i32 %68, ptr %74, align 8
  %75 = load ptr, ptr %5, align 8
  %76 = getelementptr inbounds nuw %struct.VhostUserMsg, ptr %75, i32 0, i32 5
  store i32 1, ptr %76, align 1
  %77 = load ptr, ptr %5, align 8
  %78 = getelementptr inbounds nuw %struct.VhostUserMsg, ptr %77, i32 0, i32 3
  %79 = getelementptr inbounds nuw %struct.VhostUserInflight, ptr %78, i32 0, i32 1
  store i64 0, ptr %79, align 1
  br label %80

80:                                               ; preds = %54
  br label %81

81:                                               ; preds = %80
  br label %82

82:                                               ; preds = %81
  br label %83

83:                                               ; preds = %82
  br label %84

84:                                               ; preds = %83
  br label %85

85:                                               ; preds = %84
  store i1 true, ptr %3, align 1
  store i32 1, ptr %11, align 4
  br label %86

86:                                               ; preds = %85, %49, %17
  call void @llvm.lifetime.end.p0(i64 2, ptr %10) #13
  call void @llvm.lifetime.end.p0(i64 2, ptr %9) #13
  call void @llvm.lifetime.end.p0(i64 8, ptr %8) #13
  call void @llvm.lifetime.end.p0(i64 8, ptr %7) #13
  call void @llvm.lifetime.end.p0(i64 4, ptr %6) #13
  %87 = load i1, ptr %3, align 1
  ret i1 %87
}