; Function Attrs: nounwind uwtable
define internal fastcc void @vu_get_inflight_fd(ptr noundef %0, ptr noundef nonnull captures(none) initializes((12, 20)) %1) unnamed_addr #3 {
  %3 = getelementptr inbounds nuw i8, ptr %1, i64 8
  %4 = load i32, ptr %3, align 1
  %.not = icmp eq i32 %4, 24
  br i1 %.not, label %7, label %5

5:                                                ; preds = %2
  tail call void (ptr, ptr, ...) @vu_panic(ptr noundef %0, ptr noundef nonnull @.str.85, i32 noundef %4)
  %6 = getelementptr inbounds nuw i8, ptr %1, i64 12
  store i64 0, ptr %6, align 1
  br label %37

7:                                                ; preds = %2
  %8 = getelementptr inbounds nuw i8, ptr %1, i64 12
  %9 = getelementptr inbounds nuw i8, ptr %1, i64 28
  %10 = load i16, ptr %9, align 1
  %11 = getelementptr inbounds nuw i8, ptr %1, i64 30
  %12 = load i16, ptr %11, align 1
  %13 = zext i16 %12 to i64
  %14 = shl nuw nsw i64 %13, 4
  %15 = add nuw nsw i64 %14, 65
  %16 = and i64 %15, 2097088
  %17 = zext i16 %10 to i64
  %18 = mul nuw nsw i64 %16, %17
  %19 = tail call i32 @memfd_create(ptr noundef nonnull @.str.86, i32 noundef 2) #21
  %20 = icmp slt i32 %19, 0
  br i1 %20, label %memfd_alloc.exit.thread, label %21

21:                                               ; preds = %7
  %22 = tail call i32 @ftruncate64(i32 noundef %19, i64 noundef range(i64 0, 68718428161) %18) #21
  %23 = icmp slt i32 %22, 0
  br i1 %23, label %.sink.split.i, label %24

24:                                               ; preds = %21
  %25 = tail call i32 (i32, i32, ...) @fcntl64(i32 noundef %19, i32 noundef 1033, i32 noundef 7) #21
  %26 = icmp slt i32 %25, 0
  br i1 %26, label %.sink.split.i, label %27

27:                                               ; preds = %24
  %28 = tail call ptr @mmap64(ptr noundef null, i64 noundef range(i64 0, 68718428161) %18, i32 noundef 3, i32 noundef 1, i32 noundef %19, i64 noundef 0) #21
  %magicptr = ptrtoint ptr %28 to i64
  switch i64 %magicptr, label %30 [
    i64 -1, label %.sink.split.i
    i64 0, label %memfd_alloc.exit.thread
  ]

.sink.split.i:                                    ; preds = %27, %24, %21
  %29 = tail call i32 @close(i32 noundef %19) #21
  br label %memfd_alloc.exit.thread

memfd_alloc.exit.thread:                          ; preds = %27, %.sink.split.i, %7
  tail call void (ptr, ptr, ...) @vu_panic(ptr noundef %0, ptr noundef nonnull @.str.87)
  store i64 0, ptr %8, align 1
  br label %37

30:                                               ; preds = %27
  tail call void @llvm.memset.p0.i64(ptr nonnull align 1 %28, i8 0, i64 %18, i1 false)
  %31 = getelementptr inbounds nuw i8, ptr %0, i64 24
  %32 = getelementptr inbounds nuw i8, ptr %0, i64 32
  store ptr %28, ptr %32, align 8
  store i64 %18, ptr %8, align 1
  %33 = getelementptr inbounds nuw i8, ptr %0, i64 40
  store i64 %18, ptr %33, align 8
  %34 = getelementptr inbounds nuw i8, ptr %1, i64 284
  store i32 %19, ptr %34, align 1
  store i32 %19, ptr %31, align 8
  %35 = getelementptr inbounds nuw i8, ptr %1, i64 316
  store i32 1, ptr %35, align 1
  %36 = getelementptr inbounds nuw i8, ptr %1, i64 20
  store i64 0, ptr %36, align 1
  br label %37

37:                                               ; preds = %30, %memfd_alloc.exit.thread, %5
  ret void
}